target datalayout = "e-m:e-p270:32:32-p271:32:32-p272:64:64-i64:64-i128:128-f80:128-n8:16:32:64-S128"
target triple = "x86_64-pc-linux-gnu"

%struct.Ivy_Obj_t_ = type { i32, i32, i32, i32, ptr, ptr, ptr, ptr, ptr, ptr, ptr, ptr }
%struct.Ivy_FraigMan_t_ = type { ptr, i64, i64, ptr, ptr, i32, ptr, ptr, i32, ptr, ptr, %struct.Ivy_FraigList_t_, %struct.Ivy_FraigList_t_, i32, ptr, i32, ptr, ptr, i32, i32, i32, i32, i32, i32, i32, i32, i32, i32, i32, i32, i32, i64, i64, i64, i64, i64, i64, i64, i64, i64, i64 }
%struct.Ivy_FraigList_t_ = type { ptr, ptr, i32 }
%struct.Ivy_FraigSim_t_ = type { i32, ptr, ptr, ptr, [0 x i32] }

; Function Attrs: inlinehint nounwind uwtable
define internal ptr @Ivy_ObjSim(ptr noundef %0) #4 {
  %2 = alloca ptr, align 8
  store ptr %0, ptr %2, align 8, !tbaa !72
  %3 = load ptr, ptr %2, align 8, !tbaa !72
  %4 = getelementptr inbounds nuw %struct.Ivy_Obj_t_, ptr %3, i32 0, i32 6
  %5 = load ptr, ptr %4, align 8, !tbaa !126
  ret ptr %5
}

; Function Attrs: nounwind uwtable
define void @Ivy_NodeAssignConst(ptr noundef %0, ptr noundef %1, i32 noundef %2) #0 {
  %4 = alloca ptr, align 8
  %5 = alloca ptr, align 8
  %6 = alloca i32, align 4
  %7 = alloca ptr, align 8
  %8 = alloca i32, align 4
  store ptr %0, ptr %4, align 8, !tbaa !60
  store ptr %1, ptr %5, align 8, !tbaa !72
  store i32 %2, ptr %6, align 4, !tbaa !44
  call void @llvm.lifetime.start.p0(i64 8, ptr %7) #12
  call void @llvm.lifetime.start.p0(i64 4, ptr %8) #12
  %9 = load ptr, ptr %5, align 8, !tbaa !72
  %10 = call ptr @Ivy_ObjSim(ptr noundef %9)
  store ptr %10, ptr %7, align 8, !tbaa !102
  store i32 0, ptr %8, align 4, !tbaa !44
  br label %11

11:                                               ; preds = %26, %3
  %12 = load i32, ptr %8, align 4, !tbaa !44
  %13 = load ptr, ptr %4, align 8, !tbaa !60
  %14 = getelementptr inbounds nuw %struct.Ivy_FraigMan_t_, ptr %13, i32 0, i32 5
  %15 = load i32, ptr %14, align 8, !tbaa !100
  %16 = icmp slt i32 %12, %15
  br i1 %16, label %17, label %29

17:                                               ; preds = %11
  %18 = load i32, ptr %6, align 4, !tbaa !44
  %19 = icmp ne i32 %18, 0
  %20 = select i1 %19, i32 -1, i32 0
  %21 = load ptr, ptr %7, align 8, !tbaa !102
  %22 = getelementptr inbounds nuw %struct.Ivy_FraigSim_t_, ptr %21, i32 0, i32 4
  %23 = load i32, ptr %8, align 4, !tbaa !44
  %24 = sext i32 %23 to i64
  %25 = getelementptr inbounds [0 x i32], ptr %22, i64 0, i64 %24
  store i32 %20, ptr %25, align 4, !tbaa !44
  br label %26

26:                                               ; preds = %17
  %27 = load i32, ptr %8, align 4, !tbaa !44
  %28 = add nsw i32 %27, 1
  store i32 %28, ptr %8, align 4, !tbaa !44
  br label %11, !llvm.loop !136

29:                                               ; preds = %11
  call void @llvm.lifetime.end.p0(i64 4, ptr %8) #12
  call void @llvm.lifetime.end.p0(i64 8, ptr %7) #12
  ret void
}