; Function Attrs: nofree norecurse nosync nounwind memory(write, argmem: readwrite, inaccessiblemem: none) uwtable
define void @Ivy_NodeAssignConst(ptr noundef readonly captures(none) %0, ptr noundef readonly captures(none) %1, i32 noundef %2) local_unnamed_addr #8 {
  %4 = getelementptr inbounds nuw i8, ptr %0, i64 40
  %5 = load i32, ptr %4, align 8, !tbaa !96
  %6 = icmp sgt i32 %5, 0
  br i1 %6, label %.lr.ph, label %._crit_edge

.lr.ph:                                           ; preds = %3
  %7 = getelementptr i8, ptr %1, i64 32
  %.val = load ptr, ptr %7, align 8, !tbaa !103
  %.not = icmp ne i32 %2, 0
  %8 = sext i1 %.not to i32
  %9 = getelementptr inbounds nuw i8, ptr %.val, i64 32
  br label %10

10:                                               ; preds = %.lr.ph, %10
  %indvars.iv = phi i64 [ 0, %.lr.ph ], [ %indvars.iv.next, %10 ]
  %11 = getelementptr inbounds nuw [0 x i32], ptr %9, i64 0, i64 %indvars.iv
  store i32 %8, ptr %11, align 4, !tbaa !38
  %indvars.iv.next = add nuw nsw i64 %indvars.iv, 1
  %12 = load i32, ptr %4, align 8, !tbaa !96
  %13 = sext i32 %12 to i64
  %14 = icmp slt i64 %indvars.iv.next, %13
  br i1 %14, label %10, label %._crit_edge, !llvm.loop !115

._crit_edge:                                      ; preds = %10, %3
  ret void
}